; Function Attrs: mustprogress nounwind uwtable
define dso_local void @_ZN4llvm4yaml6Output12beginMappingEv(ptr noundef nonnull align 8 dereferenceable(128) %0) unnamed_addr #6 align 2 {
  %2 = getelementptr inbounds nuw i8, ptr %0, i64 32
  %3 = tail call noundef i64 @_ZNK4llvm15SmallVectorBaseIjE4sizeEv(ptr noundef nonnull align 8 dereferenceable(16) %2) #32
  %4 = add i64 %3, 1
  %5 = tail call noundef i64 @_ZNK4llvm15SmallVectorBaseIjE8capacityEv(ptr noundef nonnull align 8 dereferenceable(16) %2) #32
  %.not.i.i.i = icmp ugt i64 %4, %5
  br i1 %.not.i.i.i, label %6, label %_ZN4llvm23SmallVectorTemplateBaseINS_4yaml6Output7InStateELb1EE9push_backES3_.exit

6:                                                ; preds = %1
  %7 = getelementptr inbounds nuw i8, ptr %0, i64 48
  tail call void @_ZN4llvm15SmallVectorBaseIjE8grow_podEPvmm(ptr noundef nonnull align 8 dereferenceable(16) %2, ptr noundef nonnull %7, i64 noundef %4, i64 noundef 4) #32
  br label %_ZN4llvm23SmallVectorTemplateBaseINS_4yaml6Output7InStateELb1EE9push_backES3_.exit

_ZN4llvm23SmallVectorTemplateBaseINS_4yaml6Output7InStateELb1EE9push_backES3_.exit: ; preds = %1, %6
  %8 = load ptr, ptr %2, align 8
  %9 = tail call noundef i64 @_ZNK4llvm15SmallVectorBaseIjE4sizeEv(ptr noundef nonnull align 8 dereferenceable(16) %2) #32
  %10 = getelementptr inbounds i32, ptr %8, i64 %9
  store i32 4, ptr %10, align 1
  %11 = tail call noundef i64 @_ZNK4llvm15SmallVectorBaseIjE4sizeEv(ptr noundef nonnull align 8 dereferenceable(16) %2) #32
  %12 = add i64 %11, 1
  tail call void @_ZN4llvm15SmallVectorBaseIjE8set_sizeEm(ptr noundef nonnull align 8 dereferenceable(16) %2, i64 noundef %12) #32
  %13 = getelementptr inbounds nuw i8, ptr %0, i64 96
  %14 = getelementptr inbounds nuw i8, ptr %0, i64 112
  tail call void @llvm.memcpy.p0.p0.i64(ptr noundef nonnull align 8 dereferenceable(16) %14, ptr noundef nonnull align 8 dereferenceable(16) %13, i64 16, i1 false)
  store ptr @.str.14, ptr %13, align 8
  %.sroa.2.0..sroa_idx = getelementptr inbounds nuw i8, ptr %0, i64 104
  store i64 1, ptr %.sroa.2.0..sroa_idx, align 8
  ret void
}